target datalayout = "e-m:e-p270:32:32-p271:32:32-p272:64:64-i64:64-i128:128-f80:128-n8:16:32:64-S128"
target triple = "x86_64-pc-linux-gnu"

%struct._value_string_ext = type { ptr, i32, i32, ptr, ptr }
%struct.reassembly_table = type { ptr, ptr, ptr, ptr, ptr }
%struct._packet_info = type { ptr, ptr, i32, i32, %struct.nstime_t, %struct.nstime_t, %struct.nstime_t, i8, ptr, ptr, ptr, ptr, %struct._address, %struct._address, %struct._address, %struct._address, %struct._address, %struct._address, i32, ptr, i8, [3 x i8], %struct.anon, i32, i32, i32, i32, ptr, i8, ptr, ptr, i16, i16, i32, i32, i16, i32, i32, ptr, ptr, ptr, i8, i8, i16, i16, i16, i32, i16, i16, ptr, ptr, ptr, ptr, ptr, i32, i32 }
%struct.nstime_t = type { i64, i32 }
%struct._address = type { i32, i32, ptr, ptr }
%struct.anon = type { i8, [3 x i8] }

@hf_ieee1905_fragment_data = internal global i32 0, align 4
@hf_ieee1905_message_version = internal global i32 0, align 4
@hf_ieee1905_message_reserved = internal global i32 0, align 4
@hf_ieee1905_message_type = internal global i32 0, align 4
@ieee1905_message_type_vals_ext = internal global %struct._value_string_ext { ptr @_try_val_to_str_ext_init, i32 0, i32 80, ptr @ieee1905_message_type_vals, ptr @.str.1416 }, align 8
@hf_ieee1905_message_id = internal global i32 0, align 4
@hf_ieee1905_fragment_id = internal global i32 0, align 4
@hf_ieee1905_flags = internal global i32 0, align 4
@ett_ieee1905 = internal global i32 0, align 4
@ett_ieee1905_flags = internal global i32 0, align 4
@.str.1413 = private unnamed_addr constant [9 x i8] c"ieee1905\00", align 1
@proto_ieee1905 = internal global i32 0, align 4
@g_ieee1905_reassembly_table = internal global %struct.reassembly_table zeroinitializer, align 8
@dissect_ieee1905.flag_headers = internal constant [3 x ptr] [ptr @hf_ieee1905_last_fragment, ptr @hf_ieee1905_relay_indicator, ptr null], align 16
@.str.1815 = private unnamed_addr constant [12 x i8] c"Unknown: %u\00", align 1
@.str.1816 = private unnamed_addr constant [20 x i8] c"Reassembled Message\00", align 1
@.str.1817 = private unnamed_addr constant [48 x i8] c" (Message ID: %u, Fragment ID: %u, VLAN ID: %u)\00", align 1

; Function Attrs: null_pointer_is_valid sspstrong uwtable
define internal i32 @dissect_ieee1905(ptr noundef %0, ptr noundef %1, ptr noundef %2, ptr noundef %3) #0 {
  %5 = alloca ptr, align 8
  %6 = alloca ptr, align 8
  %7 = alloca ptr, align 8
  %8 = alloca ptr, align 8
  %9 = alloca ptr, align 8
  %10 = alloca ptr, align 8
  %11 = alloca i16, align 2
  %12 = alloca i32, align 4
  %13 = alloca i32, align 4
  %14 = alloca i16, align 2
  %15 = alloca i8, align 1
  %16 = alloca i8, align 1
  %17 = alloca ptr, align 8
  %18 = alloca i8, align 1
  %19 = alloca ptr, align 8
  %20 = alloca ptr, align 8
  %21 = alloca i32, align 4
  %22 = alloca i32, align 4
  %23 = alloca i32, align 4
  store ptr %0, ptr %5, align 8
  store ptr %1, ptr %6, align 8
  store ptr %2, ptr %7, align 8
  store ptr %3, ptr %8, align 8
  call void @llvm.lifetime.start.p0(i64 8, ptr %9) #12
  call void @llvm.lifetime.start.p0(i64 8, ptr %10) #12
  call void @llvm.lifetime.start.p0(i64 2, ptr %11) #12
  call void @llvm.lifetime.start.p0(i64 4, ptr %12) #12
  store i32 0, ptr %12, align 4
  call void @llvm.lifetime.start.p0(i64 4, ptr %13) #12
  store i32 0, ptr %13, align 4
  call void @llvm.lifetime.start.p0(i64 2, ptr %14) #12
  %24 = load ptr, ptr %5, align 8
  %25 = call zeroext i16 @tvb_get_ntohs(ptr noundef %24, i32 noundef 4)
  store i16 %25, ptr %14, align 2
  call void @llvm.lifetime.start.p0(i64 1, ptr %15) #12
  %26 = load ptr, ptr %5, align 8
  %27 = call zeroext i8 @tvb_get_uint8(ptr noundef %26, i32 noundef 6)
  store i8 %27, ptr %15, align 1
  call void @llvm.lifetime.start.p0(i64 1, ptr %16) #12
  %28 = load ptr, ptr %5, align 8
  %29 = call zeroext i8 @tvb_get_uint8(ptr noundef %28, i32 noundef 7)
  store i8 %29, ptr %16, align 1
  call void @llvm.lifetime.start.p0(i64 8, ptr %17) #12
  store ptr null, ptr %17, align 8
  %30 = load ptr, ptr %6, align 8
  %31 = getelementptr inbounds nuw %struct._packet_info, ptr %30, i32 0, i32 1
  %32 = load ptr, ptr %31, align 8
  call void @col_set_str(ptr noundef %32, i32 noundef 35, ptr noundef @.str.1413)
  %33 = load ptr, ptr %6, align 8
  %34 = getelementptr inbounds nuw %struct._packet_info, ptr %33, i32 0, i32 1
  %35 = load ptr, ptr %34, align 8
  call void @col_clear(ptr noundef %35, i32 noundef 25)
  %36 = load ptr, ptr %5, align 8
  %37 = call zeroext i16 @tvb_get_ntohs(ptr noundef %36, i32 noundef 2)
  store i16 %37, ptr %11, align 2
  %38 = load ptr, ptr %6, align 8
  %39 = getelementptr inbounds nuw %struct._packet_info, ptr %38, i32 0, i32 1
  %40 = load ptr, ptr %39, align 8
  %41 = load i16, ptr %11, align 2
  %42 = zext i16 %41 to i32
  %43 = call ptr @val_to_str_ext(i32 noundef %42, ptr noundef @ieee1905_message_type_vals_ext, ptr noundef @.str.1815)
  call void @col_add_str(ptr noundef %40, i32 noundef 25, ptr noundef %43)
  %44 = load ptr, ptr %7, align 8
  %45 = load i32, ptr @proto_ieee1905, align 4
  %46 = load ptr, ptr %5, align 8
  %47 = call ptr @proto_tree_add_item(ptr noundef %44, i32 noundef %45, ptr noundef %46, i32 noundef 0, i32 noundef -1, i32 noundef 0)
  store ptr %47, ptr %9, align 8
  %48 = load ptr, ptr %9, align 8
  %49 = load i32, ptr @ett_ieee1905, align 4
  %50 = call ptr @proto_item_add_subtree(ptr noundef %48, i32 noundef %49)
  store ptr %50, ptr %10, align 8
  %51 = load ptr, ptr %10, align 8
  %52 = load i32, ptr @hf_ieee1905_message_version, align 4
  %53 = load ptr, ptr %5, align 8
  %54 = load i32, ptr %12, align 4
  %55 = call ptr @proto_tree_add_item(ptr noundef %51, i32 noundef %52, ptr noundef %53, i32 noundef %54, i32 noundef 1, i32 noundef 0)
  %56 = load i32, ptr %12, align 4
  %57 = add i32 %56, 1
  store i32 %57, ptr %12, align 4
  %58 = load ptr, ptr %10, align 8
  %59 = load i32, ptr @hf_ieee1905_message_reserved, align 4
  %60 = load ptr, ptr %5, align 8
  %61 = load i32, ptr %12, align 4
  %62 = call ptr @proto_tree_add_item(ptr noundef %58, i32 noundef %59, ptr noundef %60, i32 noundef %61, i32 noundef 1, i32 noundef 0)
  %63 = load i32, ptr %12, align 4
  %64 = add i32 %63, 1
  store i32 %64, ptr %12, align 4
  %65 = load ptr, ptr %10, align 8
  %66 = load i32, ptr @hf_ieee1905_message_type, align 4
  %67 = load ptr, ptr %5, align 8
  %68 = load i32, ptr %12, align 4
  %69 = call ptr @proto_tree_add_item(ptr noundef %65, i32 noundef %66, ptr noundef %67, i32 noundef %68, i32 noundef 2, i32 noundef 0)
  %70 = load i32, ptr %12, align 4
  %71 = add i32 %70, 2
  store i32 %71, ptr %12, align 4
  %72 = load ptr, ptr %10, align 8
  %73 = load i32, ptr @hf_ieee1905_message_id, align 4
  %74 = load ptr, ptr %5, align 8
  %75 = load i32, ptr %12, align 4
  %76 = call ptr @proto_tree_add_item(ptr noundef %72, i32 noundef %73, ptr noundef %74, i32 noundef %75, i32 noundef 2, i32 noundef 0)
  %77 = load i32, ptr %12, align 4
  %78 = add i32 %77, 2
  store i32 %78, ptr %12, align 4
  %79 = load ptr, ptr %10, align 8
  %80 = load i32, ptr @hf_ieee1905_fragment_id, align 4
  %81 = load ptr, ptr %5, align 8
  %82 = load i32, ptr %12, align 4
  %83 = call ptr @proto_tree_add_item(ptr noundef %79, i32 noundef %80, ptr noundef %81, i32 noundef %82, i32 noundef 1, i32 noundef 0)
  %84 = load i32, ptr %12, align 4
  %85 = add i32 %84, 1
  store i32 %85, ptr %12, align 4
  %86 = load ptr, ptr %10, align 8
  %87 = load ptr, ptr %5, align 8
  %88 = load i32, ptr %12, align 4
  %89 = load i32, ptr @hf_ieee1905_flags, align 4
  %90 = load i32, ptr @ett_ieee1905_flags, align 4
  %91 = call ptr @proto_tree_add_bitmask(ptr noundef %86, ptr noundef %87, i32 noundef %88, i32 noundef %89, i32 noundef %90, ptr noundef @dissect_ieee1905.flag_headers, i32 noundef 0)
  %92 = load i32, ptr %12, align 4
  %93 = add i32 %92, 1
  store i32 %93, ptr %12, align 4
  %94 = load i8, ptr %16, align 1
  %95 = zext i8 %94 to i32
  %96 = and i32 %95, 128
  %97 = icmp ne i32 %96, 0
  br i1 %97, label %98, label %110

98:                                               ; preds = %4
  %99 = load i8, ptr %15, align 1
  %100 = zext i8 %99 to i32
  %101 = icmp eq i32 %100, 0
  br i1 %101, label %102, label %110

102:                                              ; preds = %98
  %103 = load ptr, ptr %5, align 8
  %104 = load i32, ptr %12, align 4
  %105 = call ptr @tvb_new_subset_remaining(ptr noundef %103, i32 noundef %104)
  store ptr %105, ptr %17, align 8
  %106 = load ptr, ptr %17, align 8
  %107 = load ptr, ptr %6, align 8
  %108 = load ptr, ptr %10, align 8
  %109 = call i32 @dissect_ieee1905_tlvs(ptr noundef %106, ptr noundef %107, ptr noundef %108)
  store i32 %109, ptr %13, align 4
  br label %182

110:                                              ; preds = %98, %4
  call void @llvm.lifetime.start.p0(i64 1, ptr %18) #12
  %111 = load ptr, ptr %6, align 8
  %112 = getelementptr inbounds nuw %struct._packet_info, ptr %111, i32 0, i32 20
  %113 = load i8, ptr %112, align 8, !range !6, !noundef !7
  %114 = trunc i8 %113 to i1
  %115 = zext i1 %114 to i8
  store i8 %115, ptr %18, align 1
  %116 = load ptr, ptr %6, align 8
  %117 = getelementptr inbounds nuw %struct._packet_info, ptr %116, i32 0, i32 20
  store i8 1, ptr %117, align 8
  call void @llvm.lifetime.start.p0(i64 8, ptr %19) #12
  store ptr null, ptr %19, align 8
  call void @llvm.lifetime.start.p0(i64 8, ptr %20) #12
  store ptr null, ptr %20, align 8
  call void @llvm.lifetime.start.p0(i64 4, ptr %21) #12
  %118 = load ptr, ptr %5, align 8
  %119 = load i32, ptr %12, align 4
  %120 = call i32 @tvb_captured_length_remaining(ptr noundef %118, i32 noundef %119)
  store i32 %120, ptr %21, align 4
  %121 = load ptr, ptr %5, align 8
  %122 = load i32, ptr %12, align 4
  %123 = load ptr, ptr %6, align 8
  %124 = load i16, ptr %14, align 2
  %125 = zext i16 %124 to i32
  %126 = load i8, ptr %15, align 1
  %127 = zext i8 %126 to i32
  %128 = load i32, ptr %21, align 4
  %129 = load i8, ptr %16, align 1
  %130 = zext i8 %129 to i32
  %131 = and i32 %130, 128
  %132 = icmp eq i32 %131, 0
  %133 = call ptr @fragment_add_seq_check(ptr noundef @g_ieee1905_reassembly_table, ptr noundef %121, i32 noundef %122, ptr noundef %123, i32 noundef %125, ptr noundef null, i32 noundef %127, i32 noundef %128, i1 noundef zeroext %132)
  store ptr %133, ptr %19, align 8
  %134 = load ptr, ptr %5, align 8
  %135 = load i32, ptr %12, align 4
  %136 = load ptr, ptr %6, align 8
  %137 = load ptr, ptr %19, align 8
  %138 = load ptr, ptr %10, align 8
  %139 = call ptr @process_reassembled_data(ptr noundef %134, i32 noundef %135, ptr noundef %136, ptr noundef @.str.1816, ptr noundef %137, ptr noundef @ieee1905_fragment_items, ptr noundef null, ptr noundef %138)
  store ptr %139, ptr %20, align 8
  %140 = load i8, ptr %18, align 1, !range !6, !noundef !7
  %141 = trunc i8 %140 to i1
  %142 = load ptr, ptr %6, align 8
  %143 = getelementptr inbounds nuw %struct._packet_info, ptr %142, i32 0, i32 20
  %144 = zext i1 %141 to i8
  store i8 %144, ptr %143, align 8
  %145 = load ptr, ptr %20, align 8
  %146 = icmp ne ptr %145, null
  br i1 %146, label %147, label %161

147:                                              ; preds = %110
  call void @llvm.lifetime.start.p0(i64 4, ptr %22) #12
  %148 = load ptr, ptr %20, align 8
  %149 = call i32 @tvb_captured_length(ptr noundef %148)
  store i32 %149, ptr %22, align 4
  call void @llvm.lifetime.start.p0(i64 4, ptr %23) #12
  %150 = load ptr, ptr %20, align 8
  %151 = load ptr, ptr %6, align 8
  %152 = load ptr, ptr %10, align 8
  %153 = call i32 @dissect_ieee1905_tlvs(ptr noundef %150, ptr noundef %151, ptr noundef %152)
  store i32 %153, ptr %23, align 4
  %154 = load ptr, ptr %20, align 8
  %155 = load i32, ptr %23, align 4
  call void @tvb_set_reported_length(ptr noundef %154, i32 noundef %155)
  %156 = load i32, ptr %21, align 4
  %157 = load i32, ptr %22, align 4
  %158 = load i32, ptr %23, align 4
  %159 = sub i32 %157, %158
  %160 = sub i32 %156, %159
  store i32 %160, ptr %13, align 4
  call void @llvm.lifetime.end.p0(i64 4, ptr %23) #12
  call void @llvm.lifetime.end.p0(i64 4, ptr %22) #12
  br label %181

161:                                              ; preds = %110
  %162 = load ptr, ptr %6, align 8
  %163 = getelementptr inbounds nuw %struct._packet_info, ptr %162, i32 0, i32 1
  %164 = load ptr, ptr %163, align 8
  %165 = load i16, ptr %14, align 2
  %166 = zext i16 %165 to i32
  %167 = load i8, ptr %15, align 1
  %168 = zext i8 %167 to i32
  %169 = load ptr, ptr %6, align 8
  %170 = getelementptr inbounds nuw %struct._packet_info, ptr %169, i32 0, i32 18
  %171 = load i32, ptr %170, align 8
  call void (ptr, i32, ptr, ...) @col_append_fstr(ptr noundef %164, i32 noundef 25, ptr noundef @.str.1817, i32 noundef %166, i32 noundef %168, i32 noundef %171)
  %172 = load ptr, ptr %10, align 8
  %173 = load i32, ptr @hf_ieee1905_fragment_data, align 4
  %174 = load ptr, ptr %5, align 8
  %175 = load i32, ptr %12, align 4
  %176 = load ptr, ptr %5, align 8
  %177 = load i32, ptr %12, align 4
  %178 = call i32 @tvb_reported_length_remaining(ptr noundef %176, i32 noundef %177)
  %179 = call ptr @proto_tree_add_item(ptr noundef %172, i32 noundef %173, ptr noundef %174, i32 noundef %175, i32 noundef %178, i32 noundef 0)
  %180 = load i32, ptr %21, align 4
  store i32 %180, ptr %13, align 4
  br label %181

181:                                              ; preds = %161, %147
  call void @llvm.lifetime.end.p0(i64 4, ptr %21) #12
  call void @llvm.lifetime.end.p0(i64 8, ptr %20) #12
  call void @llvm.lifetime.end.p0(i64 8, ptr %19) #12
  call void @llvm.lifetime.end.p0(i64 1, ptr %18) #12
  br label %182

182:                                              ; preds = %181, %102
  %183 = load ptr, ptr %9, align 8
  %184 = load i32, ptr %12, align 4
  %185 = load i32, ptr %13, align 4
  %186 = add i32 %184, %185
  call void @proto_item_set_len(ptr noundef %183, i32 noundef %186)
  %187 = load ptr, ptr %5, align 8
  %188 = load i32, ptr %12, align 4
  %189 = load i32, ptr %13, align 4
  %190 = add i32 %188, %189
  call void @tvb_set_reported_length(ptr noundef %187, i32 noundef %190)
  %191 = load i32, ptr %12, align 4
  %192 = load i32, ptr %13, align 4
  %193 = add i32 %191, %192
  call void @llvm.lifetime.end.p0(i64 8, ptr %17) #12
  call void @llvm.lifetime.end.p0(i64 1, ptr %16) #12
  call void @llvm.lifetime.end.p0(i64 1, ptr %15) #12
  call void @llvm.lifetime.end.p0(i64 2, ptr %14) #12
  call void @llvm.lifetime.end.p0(i64 4, ptr %13) #12
  call void @llvm.lifetime.end.p0(i64 4, ptr %12) #12
  call void @llvm.lifetime.end.p0(i64 2, ptr %11) #12
  call void @llvm.lifetime.end.p0(i64 8, ptr %10) #12
  call void @llvm.lifetime.end.p0(i64 8, ptr %9) #12
  ret i32 %193
}