; Function Attrs: null_pointer_is_valid sspstrong uwtable
define internal noundef i32 @dissect_ieee1905(ptr noundef %0, ptr noundef %1, ptr noundef %2, ptr readnone captures(none) %3) #0 {
  %5 = tail call zeroext i16 @tvb_get_ntohs(ptr noundef %0, i32 noundef 4)
  %6 = tail call zeroext i8 @tvb_get_uint8(ptr noundef %0, i32 noundef 6)
  %7 = tail call zeroext i8 @tvb_get_uint8(ptr noundef %0, i32 noundef 7)
  %8 = getelementptr inbounds nuw i8, ptr %1, i64 8
  %9 = load ptr, ptr %8, align 8
  tail call void @col_set_str(ptr noundef %9, i32 noundef 35, ptr noundef nonnull @.str.1413)
  %10 = load ptr, ptr %8, align 8
  tail call void @col_clear(ptr noundef %10, i32 noundef 25)
  %11 = tail call zeroext i16 @tvb_get_ntohs(ptr noundef %0, i32 noundef 2)
  %12 = load ptr, ptr %8, align 8
  %13 = zext i16 %11 to i32
  %14 = tail call ptr @val_to_str_ext(i32 noundef %13, ptr noundef nonnull @ieee1905_message_type_vals_ext, ptr noundef nonnull @.str.1815)
  tail call void @col_add_str(ptr noundef %12, i32 noundef 25, ptr noundef %14)
  %15 = load i32, ptr @proto_ieee1905, align 4
  %16 = tail call ptr @proto_tree_add_item(ptr noundef %2, i32 noundef %15, ptr noundef %0, i32 noundef 0, i32 noundef -1, i32 noundef 0)
  %17 = load i32, ptr @ett_ieee1905, align 4
  %18 = tail call ptr @proto_item_add_subtree(ptr noundef %16, i32 noundef %17)
  %19 = load i32, ptr @hf_ieee1905_message_version, align 4
  %20 = tail call ptr @proto_tree_add_item(ptr noundef %18, i32 noundef %19, ptr noundef %0, i32 noundef 0, i32 noundef 1, i32 noundef 0)
  %21 = load i32, ptr @hf_ieee1905_message_reserved, align 4
  %22 = tail call ptr @proto_tree_add_item(ptr noundef %18, i32 noundef %21, ptr noundef %0, i32 noundef 1, i32 noundef 1, i32 noundef 0)
  %23 = load i32, ptr @hf_ieee1905_message_type, align 4
  %24 = tail call ptr @proto_tree_add_item(ptr noundef %18, i32 noundef %23, ptr noundef %0, i32 noundef 2, i32 noundef 2, i32 noundef 0)
  %25 = load i32, ptr @hf_ieee1905_message_id, align 4
  %26 = tail call ptr @proto_tree_add_item(ptr noundef %18, i32 noundef %25, ptr noundef %0, i32 noundef 4, i32 noundef 2, i32 noundef 0)
  %27 = load i32, ptr @hf_ieee1905_fragment_id, align 4
  %28 = tail call ptr @proto_tree_add_item(ptr noundef %18, i32 noundef %27, ptr noundef %0, i32 noundef 6, i32 noundef 1, i32 noundef 0)
  %29 = load i32, ptr @hf_ieee1905_flags, align 4
  %30 = load i32, ptr @ett_ieee1905_flags, align 4
  %31 = tail call ptr @proto_tree_add_bitmask(ptr noundef %18, ptr noundef %0, i32 noundef 7, i32 noundef %29, i32 noundef %30, ptr noundef nonnull @dissect_ieee1905.flag_headers, i32 noundef 0)
  %32 = and i8 %7, -128
  %33 = icmp ne i8 %32, 0
  %34 = zext i8 %6 to i32
  %35 = icmp eq i8 %6, 0
  %or.cond = select i1 %33, i1 %35, i1 false
  br i1 %or.cond, label %36, label %39

36:                                               ; preds = %4
  %37 = tail call ptr @tvb_new_subset_remaining(ptr noundef %0, i32 noundef 8)
  %38 = tail call fastcc i32 @dissect_ieee1905_tlvs(ptr noundef %37, ptr noundef %1, ptr noundef %18)
  br label %58

39:                                               ; preds = %4
  %40 = getelementptr inbounds nuw i8, ptr %1, i64 272
  %41 = load i8, ptr %40, align 8, !range !6, !noundef !7
  store i8 1, ptr %40, align 8
  %42 = tail call i32 @tvb_captured_length_remaining(ptr noundef %0, i32 noundef 8)
  %43 = zext i16 %5 to i32
  %44 = icmp eq i8 %32, 0
  %45 = tail call ptr @fragment_add_seq_check(ptr noundef nonnull @g_ieee1905_reassembly_table, ptr noundef %0, i32 noundef 8, ptr noundef %1, i32 noundef %43, ptr noundef null, i32 noundef %34, i32 noundef %42, i1 noundef zeroext %44)
  %46 = tail call ptr @process_reassembled_data(ptr noundef %0, i32 noundef 8, ptr noundef %1, ptr noundef nonnull @.str.1816, ptr noundef %45, ptr noundef nonnull @ieee1905_fragment_items, ptr noundef null, ptr noundef %18)
  store i8 %41, ptr %40, align 8
  %.not = icmp eq ptr %46, null
  br i1 %.not, label %51, label %47

47:                                               ; preds = %39
  %48 = tail call i32 @tvb_captured_length(ptr noundef nonnull %46)
  %49 = tail call fastcc i32 @dissect_ieee1905_tlvs(ptr noundef nonnull %46, ptr noundef %1, ptr noundef %18)
  tail call void @tvb_set_reported_length(ptr noundef nonnull %46, i32 noundef %49)
  %.neg = sub i32 %42, %48
  %50 = add i32 %.neg, %49
  br label %58

51:                                               ; preds = %39
  %52 = load ptr, ptr %8, align 8
  %53 = getelementptr inbounds nuw i8, ptr %1, i64 256
  %54 = load i32, ptr %53, align 8
  tail call void (ptr, i32, ptr, ...) @col_append_fstr(ptr noundef %52, i32 noundef 25, ptr noundef nonnull @.str.1817, i32 noundef %43, i32 noundef %34, i32 noundef %54)
  %55 = load i32, ptr @hf_ieee1905_fragment_data, align 4
  %56 = tail call i32 @tvb_reported_length_remaining(ptr noundef %0, i32 noundef 8)
  %57 = tail call ptr @proto_tree_add_item(ptr noundef %18, i32 noundef %55, ptr noundef %0, i32 noundef 8, i32 noundef %56, i32 noundef 0)
  br label %58

58:                                               ; preds = %47, %51, %36
  %.0 = phi i32 [ %38, %36 ], [ %50, %47 ], [ %42, %51 ]
  %59 = add i32 %.0, 8
  tail call void @proto_item_set_len(ptr noundef %16, i32 noundef %59)
  tail call void @tvb_set_reported_length(ptr noundef %0, i32 noundef %59)
  ret i32 %59
}